target datalayout = "e-m:e-p270:32:32-p271:32:32-p272:64:64-i64:64-i128:128-f80:128-n8:16:32:64-S128"
target triple = "x86_64-pc-linux-gnu"

%struct.ma_allocation_callbacks = type { ptr, ptr, ptr, ptr }
%struct.ma_biquad_config = type { i32, i32, double, double, double, double, double, double }
%struct.ma_biquad_heap_layout = type { i64, i64, i64 }
%struct.ma_biquad = type { i32, i32, %union.ma_biquad_coefficient, %union.ma_biquad_coefficient, %union.ma_biquad_coefficient, %union.ma_biquad_coefficient, %union.ma_biquad_coefficient, ptr, ptr, ptr, i32 }
%union.ma_biquad_coefficient = type { float }

; Function Attrs: nounwind uwtable
define internal void @ma__free_default(ptr noundef %0, ptr noundef %1) #0 {
  %3 = alloca ptr, align 8
  %4 = alloca ptr, align 8
  store ptr %0, ptr %3, align 8
  store ptr %1, ptr %4, align 8
  %5 = load ptr, ptr %3, align 8
  call void @free(ptr noundef %5) #21
  ret void
}

; Function Attrs: alwaysinline nounwind uwtable
define internal void @ma_zero_memory_default(ptr noundef %0, i64 noundef %1) #7 {
  %3 = alloca ptr, align 8
  %4 = alloca i64, align 8
  store ptr %0, ptr %3, align 8
  store i64 %1, ptr %4, align 8
  %5 = load ptr, ptr %3, align 8
  %6 = icmp eq ptr %5, null
  br i1 %6, label %7, label %8

7:                                                ; preds = %2
  br label %14

8:                                                ; preds = %2
  %9 = load i64, ptr %4, align 8
  %10 = icmp ugt i64 %9, 0
  br i1 %10, label %11, label %14

11:                                               ; preds = %8
  %12 = load ptr, ptr %3, align 8
  %13 = load i64, ptr %4, align 8
  call void @llvm.memset.p0.i64(ptr align 1 %12, i8 0, i64 %13, i1 false)
  br label %14

14:                                               ; preds = %7, %11, %8
  ret void
}

; Function Attrs: nounwind uwtable
define internal ptr @ma__malloc_default(i64 noundef %0, ptr noundef %1) #0 {
  %3 = alloca i64, align 8
  %4 = alloca ptr, align 8
  store i64 %0, ptr %3, align 8
  store ptr %1, ptr %4, align 8
  %5 = load i64, ptr %3, align 8
  %6 = call noalias ptr @malloc(i64 noundef %5) #27
  ret ptr %6
}

; Function Attrs: nounwind uwtable
define internal i32 @ma_biquad_get_heap_layout(ptr noundef %0, ptr noundef %1) #0 {
  %3 = alloca i32, align 4
  %4 = alloca ptr, align 8
  %5 = alloca ptr, align 8
  store ptr %0, ptr %4, align 8
  store ptr %1, ptr %5, align 8
  %6 = load ptr, ptr %5, align 8
  call void @ma_zero_memory_default(ptr noundef %6, i64 noundef 24)
  %7 = load ptr, ptr %4, align 8
  %8 = icmp eq ptr %7, null
  br i1 %8, label %9, label %10

9:                                                ; preds = %2
  store i32 -2, ptr %3, align 4
  br label %54

10:                                               ; preds = %2
  %11 = load ptr, ptr %4, align 8
  %12 = getelementptr inbounds nuw %struct.ma_biquad_config, ptr %11, i32 0, i32 1
  %13 = load i32, ptr %12, align 4
  %14 = icmp eq i32 %13, 0
  br i1 %14, label %15, label %16

15:                                               ; preds = %10
  store i32 -2, ptr %3, align 4
  br label %54

16:                                               ; preds = %10
  %17 = load ptr, ptr %5, align 8
  %18 = getelementptr inbounds nuw %struct.ma_biquad_heap_layout, ptr %17, i32 0, i32 0
  store i64 0, ptr %18, align 8
  %19 = load ptr, ptr %5, align 8
  %20 = getelementptr inbounds nuw %struct.ma_biquad_heap_layout, ptr %19, i32 0, i32 0
  %21 = load i64, ptr %20, align 8
  %22 = load ptr, ptr %5, align 8
  %23 = getelementptr inbounds nuw %struct.ma_biquad_heap_layout, ptr %22, i32 0, i32 1
  store i64 %21, ptr %23, align 8
  %24 = load ptr, ptr %4, align 8
  %25 = getelementptr inbounds nuw %struct.ma_biquad_config, ptr %24, i32 0, i32 1
  %26 = load i32, ptr %25, align 4
  %27 = zext i32 %26 to i64
  %28 = mul i64 4, %27
  %29 = load ptr, ptr %5, align 8
  %30 = getelementptr inbounds nuw %struct.ma_biquad_heap_layout, ptr %29, i32 0, i32 0
  %31 = load i64, ptr %30, align 8
  %32 = add i64 %31, %28
  store i64 %32, ptr %30, align 8
  %33 = load ptr, ptr %5, align 8
  %34 = getelementptr inbounds nuw %struct.ma_biquad_heap_layout, ptr %33, i32 0, i32 0
  %35 = load i64, ptr %34, align 8
  %36 = load ptr, ptr %5, align 8
  %37 = getelementptr inbounds nuw %struct.ma_biquad_heap_layout, ptr %36, i32 0, i32 2
  store i64 %35, ptr %37, align 8
  %38 = load ptr, ptr %4, align 8
  %39 = getelementptr inbounds nuw %struct.ma_biquad_config, ptr %38, i32 0, i32 1
  %40 = load i32, ptr %39, align 4
  %41 = zext i32 %40 to i64
  %42 = mul i64 4, %41
  %43 = load ptr, ptr %5, align 8
  %44 = getelementptr inbounds nuw %struct.ma_biquad_heap_layout, ptr %43, i32 0, i32 0
  %45 = load i64, ptr %44, align 8
  %46 = add i64 %45, %42
  store i64 %46, ptr %44, align 8
  %47 = load ptr, ptr %5, align 8
  %48 = getelementptr inbounds nuw %struct.ma_biquad_heap_layout, ptr %47, i32 0, i32 0
  %49 = load i64, ptr %48, align 8
  %50 = add i64 %49, 7
  %51 = and i64 %50, -8
  %52 = load ptr, ptr %5, align 8
  %53 = getelementptr inbounds nuw %struct.ma_biquad_heap_layout, ptr %52, i32 0, i32 0
  store i64 %51, ptr %53, align 8
  store i32 0, ptr %3, align 4
  br label %54

54:                                               ; preds = %16, %15, %9
  %55 = load i32, ptr %3, align 4
  ret i32 %55
}

; Function Attrs: nounwind uwtable
define hidden void @ma_free(ptr noundef %0, ptr noundef %1) #0 {
  %3 = alloca ptr, align 8
  %4 = alloca ptr, align 8
  store ptr %0, ptr %3, align 8
  store ptr %1, ptr %4, align 8
  %5 = load ptr, ptr %3, align 8
  %6 = icmp eq ptr %5, null
  br i1 %6, label %7, label %8

7:                                                ; preds = %2
  br label %28

8:                                                ; preds = %2
  %9 = load ptr, ptr %4, align 8
  %10 = icmp ne ptr %9, null
  br i1 %10, label %11, label %26

11:                                               ; preds = %8
  %12 = load ptr, ptr %4, align 8
  %13 = getelementptr inbounds nuw %struct.ma_allocation_callbacks, ptr %12, i32 0, i32 3
  %14 = load ptr, ptr %13, align 8
  %15 = icmp ne ptr %14, null
  br i1 %15, label %16, label %24

16:                                               ; preds = %11
  %17 = load ptr, ptr %4, align 8
  %18 = getelementptr inbounds nuw %struct.ma_allocation_callbacks, ptr %17, i32 0, i32 3
  %19 = load ptr, ptr %18, align 8
  %20 = load ptr, ptr %3, align 8
  %21 = load ptr, ptr %4, align 8
  %22 = getelementptr inbounds nuw %struct.ma_allocation_callbacks, ptr %21, i32 0, i32 0
  %23 = load ptr, ptr %22, align 8
  call void %19(ptr noundef %20, ptr noundef %23)
  br label %25

24:                                               ; preds = %11
  br label %28

25:                                               ; preds = %16
  br label %28

26:                                               ; preds = %8
  %27 = load ptr, ptr %3, align 8
  call void @ma__free_default(ptr noundef %27, ptr noundef null)
  br label %28

28:                                               ; preds = %7, %24, %26, %25
  ret void
}

; Function Attrs: nounwind uwtable
define hidden i32 @ma_biquad_init_preallocated(ptr noundef %0, ptr noundef %1, ptr noundef %2) #0 {
  %4 = alloca i32, align 4
  %5 = alloca ptr, align 8
  %6 = alloca ptr, align 8
  %7 = alloca ptr, align 8
  %8 = alloca i32, align 4
  %9 = alloca %struct.ma_biquad_heap_layout, align 8
  %10 = alloca i32, align 4
  store ptr %0, ptr %5, align 8
  store ptr %1, ptr %6, align 8
  store ptr %2, ptr %7, align 8
  call void @llvm.lifetime.start.p0(i64 4, ptr %8) #21
  call void @llvm.lifetime.start.p0(i64 24, ptr %9) #21
  %11 = load ptr, ptr %7, align 8
  %12 = icmp eq ptr %11, null
  br i1 %12, label %13, label %14

13:                                               ; preds = %3
  store i32 -2, ptr %4, align 4
  store i32 1, ptr %10, align 4
  br label %44

14:                                               ; preds = %3
  %15 = load ptr, ptr %7, align 8
  call void @ma_zero_memory_default(ptr noundef %15, i64 noundef 64)
  %16 = load ptr, ptr %5, align 8
  %17 = call i32 @ma_biquad_get_heap_layout(ptr noundef %16, ptr noundef %9)
  store i32 %17, ptr %8, align 4
  %18 = load i32, ptr %8, align 4
  %19 = icmp ne i32 %18, 0
  br i1 %19, label %20, label %22

20:                                               ; preds = %14
  %21 = load i32, ptr %8, align 4
  store i32 %21, ptr %4, align 4
  store i32 1, ptr %10, align 4
  br label %44

22:                                               ; preds = %14
  %23 = load ptr, ptr %6, align 8
  %24 = load ptr, ptr %7, align 8
  %25 = getelementptr inbounds nuw %struct.ma_biquad, ptr %24, i32 0, i32 9
  store ptr %23, ptr %25, align 8
  %26 = load ptr, ptr %6, align 8
  %27 = getelementptr inbounds nuw %struct.ma_biquad_heap_layout, ptr %9, i32 0, i32 0
  %28 = load i64, ptr %27, align 8
  call void @ma_zero_memory_default(ptr noundef %26, i64 noundef %28)
  %29 = load ptr, ptr %6, align 8
  %30 = getelementptr inbounds nuw %struct.ma_biquad_heap_layout, ptr %9, i32 0, i32 1
  %31 = load i64, ptr %30, align 8
  %32 = getelementptr inbounds nuw i8, ptr %29, i64 %31
  %33 = load ptr, ptr %7, align 8
  %34 = getelementptr inbounds nuw %struct.ma_biquad, ptr %33, i32 0, i32 7
  store ptr %32, ptr %34, align 8
  %35 = load ptr, ptr %6, align 8
  %36 = getelementptr inbounds nuw %struct.ma_biquad_heap_layout, ptr %9, i32 0, i32 2
  %37 = load i64, ptr %36, align 8
  %38 = getelementptr inbounds nuw i8, ptr %35, i64 %37
  %39 = load ptr, ptr %7, align 8
  %40 = getelementptr inbounds nuw %struct.ma_biquad, ptr %39, i32 0, i32 8
  store ptr %38, ptr %40, align 8
  %41 = load ptr, ptr %5, align 8
  %42 = load ptr, ptr %7, align 8
  %43 = call i32 @ma_biquad_reinit(ptr noundef %41, ptr noundef %42)
  store i32 %43, ptr %4, align 4
  store i32 1, ptr %10, align 4
  br label %44

44:                                               ; preds = %22, %20, %13
  call void @llvm.lifetime.end.p0(i64 24, ptr %9) #21
  call void @llvm.lifetime.end.p0(i64 4, ptr %8) #21
  %45 = load i32, ptr %4, align 4
  ret i32 %45
}

; Function Attrs: nounwind uwtable
define hidden ptr @ma_malloc(i64 noundef %0, ptr noundef %1) #0 {
  %3 = alloca ptr, align 8
  %4 = alloca i64, align 8
  %5 = alloca ptr, align 8
  store i64 %0, ptr %4, align 8
  store ptr %1, ptr %5, align 8
  %6 = load ptr, ptr %5, align 8
  %7 = icmp ne ptr %6, null
  br i1 %7, label %8, label %23

8:                                                ; preds = %2
  %9 = load ptr, ptr %5, align 8
  %10 = getelementptr inbounds nuw %struct.ma_allocation_callbacks, ptr %9, i32 0, i32 1
  %11 = load ptr, ptr %10, align 8
  %12 = icmp ne ptr %11, null
  br i1 %12, label %13, label %22

13:                                               ; preds = %8
  %14 = load ptr, ptr %5, align 8
  %15 = getelementptr inbounds nuw %struct.ma_allocation_callbacks, ptr %14, i32 0, i32 1
  %16 = load ptr, ptr %15, align 8
  %17 = load i64, ptr %4, align 8
  %18 = load ptr, ptr %5, align 8
  %19 = getelementptr inbounds nuw %struct.ma_allocation_callbacks, ptr %18, i32 0, i32 0
  %20 = load ptr, ptr %19, align 8
  %21 = call ptr %16(i64 noundef %17, ptr noundef %20)
  store ptr %21, ptr %3, align 8
  br label %26

22:                                               ; preds = %8
  store ptr null, ptr %3, align 8
  br label %26

23:                                               ; preds = %2
  %24 = load i64, ptr %4, align 8
  %25 = call ptr @ma__malloc_default(i64 noundef %24, ptr noundef null)
  store ptr %25, ptr %3, align 8
  br label %26

26:                                               ; preds = %23, %22, %13
  %27 = load ptr, ptr %3, align 8
  ret ptr %27
}

; Function Attrs: nounwind uwtable
define hidden i32 @ma_biquad_get_heap_size(ptr noundef %0, ptr noundef %1) #0 {
  %3 = alloca i32, align 4
  %4 = alloca ptr, align 8
  %5 = alloca ptr, align 8
  %6 = alloca i32, align 4
  %7 = alloca %struct.ma_biquad_heap_layout, align 8
  %8 = alloca i32, align 4
  store ptr %0, ptr %4, align 8
  store ptr %1, ptr %5, align 8
  call void @llvm.lifetime.start.p0(i64 4, ptr %6) #21
  call void @llvm.lifetime.start.p0(i64 24, ptr %7) #21
  %9 = load ptr, ptr %5, align 8
  %10 = icmp eq ptr %9, null
  br i1 %10, label %11, label %12

11:                                               ; preds = %2
  store i32 -2, ptr %3, align 4
  store i32 1, ptr %8, align 4
  br label %24

12:                                               ; preds = %2
  %13 = load ptr, ptr %5, align 8
  store i64 0, ptr %13, align 8
  %14 = load ptr, ptr %4, align 8
  %15 = call i32 @ma_biquad_get_heap_layout(ptr noundef %14, ptr noundef %7)
  store i32 %15, ptr %6, align 4
  %16 = load i32, ptr %6, align 4
  %17 = icmp ne i32 %16, 0
  br i1 %17, label %18, label %20

18:                                               ; preds = %12
  %19 = load i32, ptr %6, align 4
  store i32 %19, ptr %3, align 4
  store i32 1, ptr %8, align 4
  br label %24

20:                                               ; preds = %12
  %21 = getelementptr inbounds nuw %struct.ma_biquad_heap_layout, ptr %7, i32 0, i32 0
  %22 = load i64, ptr %21, align 8
  %23 = load ptr, ptr %5, align 8
  store i64 %22, ptr %23, align 8
  store i32 0, ptr %3, align 4
  store i32 1, ptr %8, align 4
  br label %24

24:                                               ; preds = %20, %18, %11
  call void @llvm.lifetime.end.p0(i64 24, ptr %7) #21
  call void @llvm.lifetime.end.p0(i64 4, ptr %6) #21
  %25 = load i32, ptr %3, align 4
  ret i32 %25
}

; Function Attrs: nounwind uwtable
define hidden i32 @ma_biquad_init(ptr noundef %0, ptr noundef %1, ptr noundef %2) #0 {
  %4 = alloca i32, align 4
  %5 = alloca ptr, align 8
  %6 = alloca ptr, align 8
  %7 = alloca ptr, align 8
  %8 = alloca i32, align 4
  %9 = alloca i64, align 8
  %10 = alloca ptr, align 8
  %11 = alloca i32, align 4
  store ptr %0, ptr %5, align 8
  store ptr %1, ptr %6, align 8
  store ptr %2, ptr %7, align 8
  call void @llvm.lifetime.start.p0(i64 4, ptr %8) #21
  call void @llvm.lifetime.start.p0(i64 8, ptr %9) #21
  call void @llvm.lifetime.start.p0(i64 8, ptr %10) #21
  %12 = load ptr, ptr %5, align 8
  %13 = call i32 @ma_biquad_get_heap_size(ptr noundef %12, ptr noundef %9)
  store i32 %13, ptr %8, align 4
  %14 = load i32, ptr %8, align 4
  %15 = icmp ne i32 %14, 0
  br i1 %15, label %16, label %18

16:                                               ; preds = %3
  %17 = load i32, ptr %8, align 4
  store i32 %17, ptr %4, align 4
  store i32 1, ptr %11, align 4
  br label %44

18:                                               ; preds = %3
  %19 = load i64, ptr %9, align 8
  %20 = icmp ugt i64 %19, 0
  br i1 %20, label %21, label %29

21:                                               ; preds = %18
  %22 = load i64, ptr %9, align 8
  %23 = load ptr, ptr %6, align 8
  %24 = call ptr @ma_malloc(i64 noundef %22, ptr noundef %23)
  store ptr %24, ptr %10, align 8
  %25 = load ptr, ptr %10, align 8
  %26 = icmp eq ptr %25, null
  br i1 %26, label %27, label %28

27:                                               ; preds = %21
  store i32 -4, ptr %4, align 4
  store i32 1, ptr %11, align 4
  br label %44

28:                                               ; preds = %21
  br label %30

29:                                               ; preds = %18
  store ptr null, ptr %10, align 8
  br label %30

30:                                               ; preds = %29, %28
  %31 = load ptr, ptr %5, align 8
  %32 = load ptr, ptr %10, align 8
  %33 = load ptr, ptr %7, align 8
  %34 = call i32 @ma_biquad_init_preallocated(ptr noundef %31, ptr noundef %32, ptr noundef %33)
  store i32 %34, ptr %8, align 4
  %35 = load i32, ptr %8, align 4
  %36 = icmp ne i32 %35, 0
  br i1 %36, label %37, label %41

37:                                               ; preds = %30
  %38 = load ptr, ptr %10, align 8
  %39 = load ptr, ptr %6, align 8
  call void @ma_free(ptr noundef %38, ptr noundef %39)
  %40 = load i32, ptr %8, align 4
  store i32 %40, ptr %4, align 4
  store i32 1, ptr %11, align 4
  br label %44

41:                                               ; preds = %30
  %42 = load ptr, ptr %7, align 8
  %43 = getelementptr inbounds nuw %struct.ma_biquad, ptr %42, i32 0, i32 10
  store i32 1, ptr %43, align 8
  store i32 0, ptr %4, align 4
  store i32 1, ptr %11, align 4
  br label %44

44:                                               ; preds = %41, %37, %27, %16
  call void @llvm.lifetime.end.p0(i64 8, ptr %10) #21
  call void @llvm.lifetime.end.p0(i64 8, ptr %9) #21
  call void @llvm.lifetime.end.p0(i64 4, ptr %8) #21
  %45 = load i32, ptr %4, align 4
  ret i32 %45
}