; Function Attrs: nounwind uwtable
define hidden range(i32 -4, 1) i32 @ma_biquad_init(ptr noundef captures(address_is_null) %0, ptr noundef readonly captures(address_is_null) %1, ptr noundef captures(address_is_null) %2) local_unnamed_addr #7 {
  %4 = icmp eq ptr %0, null
  br i1 %4, label %ma_free.exit, label %5

5:                                                ; preds = %3
  %6 = getelementptr inbounds nuw i8, ptr %0, i64 4
  %7 = load i32, ptr %6, align 4
  %8 = icmp eq i32 %7, 0
  br i1 %8, label %ma_free.exit, label %9

9:                                                ; preds = %5
  %10 = zext i32 %7 to i64
  %11 = shl nuw nsw i64 %10, 3
  %.not.i = icmp eq ptr %1, null
  br i1 %.not.i, label %18, label %12

12:                                               ; preds = %9
  %13 = getelementptr inbounds nuw i8, ptr %1, i64 8
  %14 = load ptr, ptr %13, align 8
  %.not8.i = icmp eq ptr %14, null
  br i1 %.not8.i, label %ma_free.exit, label %15

15:                                               ; preds = %12
  %16 = load ptr, ptr %1, align 8
  %17 = tail call ptr %14(i64 noundef %11, ptr noundef %16) #72
  br label %ma_malloc.exit

18:                                               ; preds = %9
  %19 = tail call noalias noundef ptr @malloc(i64 noundef %11) #85
  br label %ma_malloc.exit

ma_malloc.exit:                                   ; preds = %15, %18
  %.0.i20 = phi ptr [ %17, %15 ], [ %19, %18 ]
  %20 = icmp eq ptr %.0.i20, null
  br i1 %20, label %ma_free.exit, label %21

21:                                               ; preds = %ma_malloc.exit
  %22 = icmp eq ptr %2, null
  br i1 %22, label %ma_biquad_init_preallocated.exit.thread, label %23

23:                                               ; preds = %21
  tail call void @llvm.memset.p0.i64(ptr noundef nonnull align 1 dereferenceable(64) %2, i8 0, i64 64, i1 false)
  %24 = load i32, ptr %6, align 4
  %25 = icmp eq i32 %24, 0
  br i1 %25, label %ma_biquad_init_preallocated.exit.thread, label %ma_biquad_init_preallocated.exit

ma_biquad_init_preallocated.exit:                 ; preds = %23
  %26 = zext i32 %24 to i64
  %27 = shl nuw nsw i64 %26, 2
  %28 = getelementptr inbounds nuw i8, ptr %2, i64 48
  store ptr %.0.i20, ptr %28, align 8
  %29 = shl nuw nsw i64 %26, 3
  tail call void @llvm.memset.p0.i64(ptr nonnull align 1 %.0.i20, i8 0, i64 %29, i1 false)
  %30 = getelementptr inbounds nuw i8, ptr %2, i64 32
  store ptr %.0.i20, ptr %30, align 8
  %31 = getelementptr inbounds nuw i8, ptr %.0.i20, i64 %27
  %32 = getelementptr inbounds nuw i8, ptr %2, i64 40
  store ptr %31, ptr %32, align 8
  %33 = tail call i32 @ma_biquad_reinit(ptr noundef nonnull %0, ptr noundef nonnull %2)
  %.not19 = icmp eq i32 %33, 0
  br i1 %.not19, label %40, label %ma_biquad_init_preallocated.exit.thread

ma_biquad_init_preallocated.exit.thread:          ; preds = %ma_biquad_init_preallocated.exit, %21, %23
  %.0.i2231 = phi i32 [ %33, %ma_biquad_init_preallocated.exit ], [ -2, %21 ], [ -2, %23 ]
  br i1 %.not.i, label %39, label %34

34:                                               ; preds = %ma_biquad_init_preallocated.exit.thread
  %35 = getelementptr inbounds nuw i8, ptr %1, i64 24
  %36 = load ptr, ptr %35, align 8
  %.not9.i = icmp eq ptr %36, null
  br i1 %.not9.i, label %ma_free.exit, label %37

37:                                               ; preds = %34
  %38 = load ptr, ptr %1, align 8
  tail call void %36(ptr noundef nonnull %.0.i20, ptr noundef %38) #72
  br label %ma_free.exit

39:                                               ; preds = %ma_biquad_init_preallocated.exit.thread
  tail call void @free(ptr noundef nonnull %.0.i20) #72
  br label %ma_free.exit

40:                                               ; preds = %ma_biquad_init_preallocated.exit
  %41 = getelementptr inbounds nuw i8, ptr %2, i64 56
  store i32 1, ptr %41, align 8
  br label %ma_free.exit

ma_free.exit:                                     ; preds = %12, %5, %3, %39, %37, %34, %ma_malloc.exit, %40
  %.013 = phi i32 [ 0, %40 ], [ -4, %ma_malloc.exit ], [ %.0.i2231, %34 ], [ %.0.i2231, %37 ], [ %.0.i2231, %39 ], [ -2, %3 ], [ -2, %5 ], [ -4, %12 ]
  ret i32 %.013
}